; Function Attrs: nounwind uwtable
define internal ptr @monitoring_get_tool(ptr readnone captures(none) %0, ptr noundef %1) #2 {
  %3 = tail call i32 @PyLong_AsInt(ptr noundef %1) #11
  %4 = icmp eq i32 %3, -1
  br i1 %4, label %22, label %.split

.split:                                           ; preds = %2
  %or.cond.i.i = icmp ugt i32 %3, 5
  br i1 %or.cond.i.i, label %check_valid_tool.exit.i, label %7

check_valid_tool.exit.i:                          ; preds = %.split
  %5 = load ptr, ptr @PyExc_ValueError, align 8, !tbaa !46
  %6 = tail call ptr (ptr, ptr, ...) @PyErr_Format(ptr noundef %5, ptr noundef nonnull @.str.27, i32 noundef %3) #11
  br label %monitoring_get_tool_impl.exit

7:                                                ; preds = %.split
  %8 = tail call align 8 ptr @llvm.threadlocal.address.p0(ptr align 8 @_Py_tss_tstate)
  %9 = load ptr, ptr %8, align 8, !tbaa !76
  %10 = getelementptr inbounds nuw i8, ptr %9, i64 16
  %11 = load ptr, ptr %10, align 8, !tbaa !47
  %12 = getelementptr inbounds nuw i8, ptr %11, i64 224264
  %13 = zext nneg i32 %3 to i64
  %14 = getelementptr [8 x ptr], ptr %12, i64 0, i64 %13
  %15 = load ptr, ptr %14, align 8, !tbaa !46
  %16 = icmp eq ptr %15, null
  br i1 %16, label %monitoring_get_tool_impl.exit, label %17

17:                                               ; preds = %7
  %18 = load i32, ptr %15, align 8, !tbaa !33
  %19 = icmp slt i32 %18, 0
  br i1 %19, label %monitoring_get_tool_impl.exit, label %20

20:                                               ; preds = %17
  %21 = add nuw i32 %18, 1
  store i32 %21, ptr %15, align 8, !tbaa !33
  br label %monitoring_get_tool_impl.exit

22:                                               ; preds = %2
  %23 = tail call ptr @PyErr_Occurred() #11
  %.not = icmp eq ptr %23, null
  br i1 %.not, label %.split4, label %monitoring_get_tool_impl.exit

.split4:                                          ; preds = %22
  %24 = load ptr, ptr @PyExc_ValueError, align 8, !tbaa !46
  %25 = tail call ptr (ptr, ptr, ...) @PyErr_Format(ptr noundef %24, ptr noundef nonnull @.str.27, i32 noundef -1) #11
  br label %monitoring_get_tool_impl.exit

monitoring_get_tool_impl.exit:                    ; preds = %20, %17, %7, %check_valid_tool.exit.i, %.split4, %22
  %.0 = phi ptr [ null, %22 ], [ null, %.split4 ], [ null, %check_valid_tool.exit.i ], [ @_Py_NoneStruct, %7 ], [ %15, %17 ], [ %15, %20 ]
  ret ptr %.0
}